(dp0
S'METTS MARK'
p1
(dp2
S'to_messages'
p3
I807
sS'deferral_payments'
p4
S'NaN'
p5
sS'poi_message_ratio'
p6
F0.0046650717703349285
sS'major_payment'
p7
F965788.0
sS'expenses'
p8
I94299
sS'poi'
p9
I00
sS'deferred_income'
p10
g5
sS'email_address'
p11
S'mark.metts@enron.com'
p12
sS'long_term_incentive'
p13
g5
sS'restricted_stock_deferred'
p14
g5
sS'shared_receipt_with_poi'
p15
I702
sS'loan_advances'
p16
g5
sS'from_messages'
p17
I29
sS'other'
p18
I1740
sS'director_fees'
p19
g5
sS'bonus'
p20
I600000
sS'total_stock_value'
p21
I585062
sS'from_poi_to_this_person'
p22
I38
sS'from_this_person_to_poi'
p23
I1
sS'restricted_stock'
p24
I585062
sS'salary'
p25
I365788
sS'total_payments'
p26
I1061827
sS'exercised_stock_options'
p27
g5
ssS'BAXTER JOHN C'
p28
(dp29
g3
g5
sg4
I1295738
sg6
F0.0
sg7
F8147646.0
sg8
I11200
sg9
I00
sg10
I-1386055
sg11
g5
sg13
I1586055
sg14
g5
sg15
g5
sg16
g5
sg17
g5
sg18
I2660303
sg19
g5
sg20
I1200000
sg21
I10623258
sg22
g5
sg23
g5
sg24
I3942714
sg25
I267102
sg26
I5634343
sg27
I6680544
ssS'ELLIOTT STEVEN'
p30
(dp31
g3
g5
sg4
g5
sg6
F0.0
sg7
F5411285.0
sg8
I78552
sg9
I00
sg10
I-400729
sg11
S'steven.elliott@enron.com'
p32
sg13
g5
sg14
g5
sg15
g5
sg16
g5
sg17
g5
sg18
I12961
sg19
g5
sg20
I350000
sg21
I6678735
sg22
g5
sg23
g5
sg24
I1788391
sg25
I170941
sg26
I211725
sg27
I4890344
ssS'CORDES WILLIAM R'
p33
(dp34
g3
I764
sg4
g5
sg6
F0.001288659793814433
sg7
F651850.0
sg8
g5
sg9
I00
sg10
g5
sg11
S'bill.cordes@enron.com'
p35
sg13
g5
sg14
g5
sg15
I58
sg16
g5
sg17
I12
sg18
g5
sg19
g5
sg20
g5
sg21
I1038185
sg22
I10
sg23
I0
sg24
I386335
sg25
g5
sg26
g5
sg27
I651850
ssS'HANNON KEVIN P'
p36
(dp37
g3
I1045
sg4
g5
sg6
F0.004921077065923863
sg7
F7281294.0
sg8
I34039
sg9
I01
sg10
I-3117011
sg11
S'kevin.hannon@enron.com'
p38
sg13
I1617011
sg14
g5
sg15
I1035
sg16
g5
sg17
I32
sg18
I11350
sg19
g5
sg20
I1500000
sg21
I6391065
sg22
I32
sg23
I21
sg24
I853064
sg25
I243293
sg26
I288682
sg27
I5538001
ssS'MORDAUNT KRISTINA M'
p39
(dp40
g3
g5
sg4
g5
sg6
F0.0
sg7
F592093.0
sg8
I35018
sg9
I00
sg10
g5
sg11
S'kristina.mordaunt@enron.com'
p41
sg13
g5
sg14
g5
sg15
g5
sg16
g5
sg17
g5
sg18
I1411
sg19
g5
sg20
I325000
sg21
I208510
sg22
g5
sg23
g5
sg24
I208510
sg25
I267093
sg26
I628522
sg27
g5
ssS'MEYER ROCKFORD G'
p42
(dp43
g3
I232
sg4
I1848227
sg6
F0.0
sg7
F493489.0
sg8
g5
sg9
I00
sg10
g5
sg11
S'rockford.meyer@enron.com'
p44
sg13
g5
sg14
g5
sg15
I22
sg16
g5
sg17
I28
sg18
g5
sg19
g5
sg20
g5
sg21
I955873
sg22
I0
sg23
I0
sg24
I462384
sg25
g5
sg26
I1848227
sg27
I493489
ssS'MCMAHON JEFFREY'
p45
(dp46
g3
I2355
sg4
g5
sg6
F0.003495630461922597
sg7
F4074502.0
sg8
I137108
sg9
I00
sg10
g5
sg11
S'jeffrey.mcmahon@enron.com'
p47
sg13
I694862
sg14
g5
sg15
I2228
sg16
g5
sg17
I48
sg18
I297353
sg19
g5
sg20
I2600000
sg21
I1662855
sg22
I58
sg23
I26
sg24
I558801
sg25
I370448
sg26
I4099771
sg27
I1104054
ssS'HORTON STANLEY C'
p48
(dp49
g3
I2350
sg4
I3131860
sg6
F0.0017236342389716625
sg7
F5210569.0
sg8
g5
sg9
I00
sg10
g5
sg11
S'stanley.horton@enron.com'
p50
sg13
g5
sg14
g5
sg15
I1074
sg16
g5
sg17
I1073
sg18
g5
sg19
g5
sg20
g5
sg21
I7256648
sg22
I44
sg23
I15
sg24
I2046079
sg25
g5
sg26
I3131860
sg27
I5210569
ssS'PIPER GREGORY F'
p51
(dp52
g3
I1238
sg4
I1130036
sg6
F0.007465753424657534
sg7
F1477381.0
sg8
I43057
sg9
I00
sg10
I-33333
sg11
S'greg.piper@enron.com'
p53
sg13
g5
sg14
I-409554
sg15
I742
sg16
g5
sg17
I222
sg18
I778
sg19
g5
sg20
I400000
sg21
I880290
sg22
I61
sg23
I48
sg24
I409554
sg25
I197091
sg26
I1737629
sg27
I880290
ssS'HUMPHREY GENE E'
p54
(dp55
g3
I128
sg4
I2964506
sg6
F0.018620689655172416
sg7
F2413492.0
sg8
I4994
sg9
I00
sg10
g5
sg11
S'gene.humphrey@enron.com'
p56
sg13
g5
sg14
g5
sg15
I119
sg16
g5
sg17
I17
sg18
g5
sg19
g5
sg20
g5
sg21
I2282768
sg22
I10
sg23
I17
sg24
g5
sg25
I130724
sg26
I3100224
sg27
I2282768
ssS'UMANOFF ADAM S'
p57
(dp58
g3
I111
sg4
g5
sg6
F0.00930232558139535
sg7
F1077339.0
sg8
I53122
sg9
I00
sg10
g5
sg11
S'adam.umanoff@enron.com'
p59
sg13
g5
sg14
g5
sg15
I41
sg16
g5
sg17
I18
sg18
g5
sg19
g5
sg20
I788750
sg21
g5
sg22
I12
sg23
I0
sg24
g5
sg25
I288589
sg26
I1130461
sg27
g5
ssS'BLACHMAN JEREMY M'
p60
(dp61
g3
I2475
sg4
g5
sg6
F0.0010847730012053035
sg7
F1863859.0
sg8
I84208
sg9
I00
sg10
g5
sg11
S'jeremy.blachman@enron.com'
p62
sg13
I831809
sg14
g5
sg15
I2326
sg16
g5
sg17
I14
sg18
I272
sg19
g5
sg20
I850000
sg21
I954354
sg22
I25
sg23
I2
sg24
I189041
sg25
I248546
sg26
I2014835
sg27
I765313
ssS'SUNDE MARTIN'
p63
(dp64
g3
I2647
sg4
g5
sg6
F0.00186219739292365
sg7
F957486.0
sg8
g5
sg9
I00
sg10
g5
sg11
S'marty.sunde@enron.com'
p65
sg13
I476451
sg14
g5
sg15
I2565
sg16
g5
sg17
I38
sg18
I111122
sg19
g5
sg20
I700000
sg21
I698920
sg22
I37
sg23
I13
sg24
I698920
sg25
I257486
sg26
I1545059
sg27
g5
ssS'GIBBS DANA R'
p66
(dp67
g3
I169
sg4
I504610
sg6
F0.0
sg7
F2218275.0
sg8
g5
sg9
I00
sg10
g5
sg11
S'dana.gibbs@enron.com'
p68
sg13
I461912
sg14
g5
sg15
I23
sg16
g5
sg17
I12
sg18
g5
sg19
g5
sg20
g5
sg21
I2218275
sg22
I0
sg23
I0
sg24
g5
sg25
g5
sg26
I966522
sg27
I2218275
ssS'LOWRY CHARLES P'
p69
(dp70
g3
g5
sg4
g5
sg6
F0.0
sg7
F372205.0
sg8
g5
sg9
I00
sg10
g5
sg11
g5
sg13
g5
sg14
I-153686
sg15
g5
sg16
g5
sg17
g5
sg18
g5
sg19
g5
sg20
g5
sg21
I372205
sg22
g5
sg23
g5
sg24
I153686
sg25
g5
sg26
g5
sg27
I372205
ssS'COLWELL WESLEY'
p71
(dp72
g3
I1758
sg4
I27610
sg6
F0.01395995550611791
sg7
F1488542.0
sg8
I16514
sg9
I01
sg10
I-144062
sg11
S'wes.colwell@enron.com'
p73
sg13
g5
sg14
g5
sg15
I1132
sg16
g5
sg17
I40
sg18
I101740
sg19
g5
sg20
I1200000
sg21
I698242
sg22
I240
sg23
I11
sg24
I698242
sg25
I288542
sg26
I1490344
sg27
g5
ssS'MULLER MARK S'
p74
(dp75
g3
I136
sg4
I842924
sg6
F0.007894736842105265
sg7
F2407974.0
sg8
g5
sg9
I00
sg10
I-719000
sg11
S's..muller@enron.com'
p76
sg13
I1725545
sg14
g5
sg15
I114
sg16
g5
sg17
I16
sg18
I947
sg19
g5
sg20
I1100000
sg21
I1416848
sg22
I12
sg23
I0
sg24
I360528
sg25
I251654
sg26
I3202070
sg27
I1056320
ssS'JACKSON CHARLENE R'
p77
(dp78
g3
I258
sg4
g5
sg6
F0.014012738853503185
sg7
F723621.0
sg8
I10181
sg9
I00
sg10
g5
sg11
S'charlene.jackson@enron.com'
p79
sg13
g5
sg14
g5
sg15
I117
sg16
g5
sg17
I56
sg18
I2435
sg19
g5
sg20
I250000
sg21
I725735
sg22
I25
sg23
I19
sg24
I540672
sg25
I288558
sg26
I551174
sg27
I185063
ssS'WESTFAHL RICHARD K'
p80
(dp81
g3
g5
sg4
g5
sg6
F0.0
sg7
F63744.0
sg8
I51870
sg9
I00
sg10
I-10800
sg11
S'dick.westfahl@enron.com'
p82
sg13
I256191
sg14
g5
sg15
g5
sg16
g5
sg17
g5
sg18
I401130
sg19
g5
sg20
g5
sg21
I384930
sg22
g5
sg23
g5
sg24
I384930
sg25
I63744
sg26
I762135
sg27
g5
ssS'WALTERS GARETH W'
p83
(dp84
g3
g5
sg4
I53625
sg6
F0.0
sg7
F1030329.0
sg8
I33785
sg9
I00
sg10
g5
sg11
g5
sg13
g5
sg14
g5
sg15
g5
sg16
g5
sg17
g5
sg18
g5
sg19
g5
sg20
g5
sg21
I1030329
sg22
g5
sg23
g5
sg24
g5
sg25
g5
sg26
I87410
sg27
I1030329
ssS'WALLS JR ROBERT H'
p85
(dp86
g3
I671
sg4
g5
sg6
F0.0020807833537331705
sg7
F5553635.0
sg8
I50936
sg9
I00
sg10
g5
sg11
S'rob.walls@enron.com'
p87
sg13
I540751
sg14
g5
sg15
I215
sg16
g5
sg17
I146
sg18
I2
sg19
g5
sg20
I850000
sg21
I5898997
sg22
I17
sg23
I0
sg24
I1552453
sg25
I357091
sg26
I1798780
sg27
I4346544
ssS'KITCHEN LOUISE'
p88
(dp89
g3
I8305
sg4
g5
sg6
F0.004435363301106349
sg7
F3452484.0
sg8
I5774
sg9
I00
sg10
g5
sg11
S'louise.kitchen@enron.com'
p90
sg13
g5
sg14
g5
sg15
I3669
sg16
g5
sg17
I1728
sg18
I93925
sg19
g5
sg20
I3100000
sg21
I547143
sg22
I251
sg23
I194
sg24
I466101
sg25
I271442
sg26
I3471141
sg27
I81042
ssS'CHAN RONNIE'
p91
(dp92
g3
g5
sg4
g5
sg6
F0.0
sg7
F0.0
sg8
g5
sg9
I00
sg10
I-98784
sg11
g5
sg13
g5
sg14
I-32460
sg15
g5
sg16
g5
sg17
g5
sg18
g5
sg19
I98784
sg20
g5
sg21
g5
sg22
g5
sg23
g5
sg24
I32460
sg25
g5
sg26
g5
sg27
g5
ssS'BELFER ROBERT'
p93
(dp94
g3
g5
sg4
I-102500
sg6
F0.0
sg7
F3285.0
sg8
g5
sg9
I00
sg10
g5
sg11
g5
sg13
g5
sg14
I44093
sg15
g5
sg16
g5
sg17
g5
sg18
g5
sg19
I3285
sg20
g5
sg21
I-44093
sg22
g5
sg23
g5
sg24
g5
sg25
g5
sg26
I102500
sg27
I3285
ssS'SHANKMAN JEFFREY A'
p95
(dp96
g3
I3221
sg4
g5
sg6
F0.002998983395459166
sg7
F3746008.0
sg8
I178979
sg9
I00
sg10
g5
sg11
S'jeffrey.shankman@enron.com'
p97
sg13
I554422
sg14
g5
sg15
I1730
sg16
g5
sg17
I2681
sg18
I1191
sg19
g5
sg20
I2000000
sg21
I2072035
sg22
I94
sg23
I83
sg24
I630137
sg25
I304110
sg26
I3038702
sg27
I1441898
ssS'WODRASKA JOHN'
p98
(dp99
g3
g5
sg4
g5
sg6
F0.0
sg7
F0.0
sg8
g5
sg9
I00
sg10
g5
sg11
S'john.wodraska@enron.com'
p100
sg13
g5
sg14
g5
sg15
g5
sg16
g5
sg17
g5
sg18
I189583
sg19
g5
sg20
g5
sg21
g5
sg22
g5
sg23
g5
sg24
g5
sg25
g5
sg26
I189583
sg27
g5
ssS'BERGSIEKER RICHARD P'
p101
(dp102
g3
I383
sg4
g5
sg6
F0.0009049773755656109
sg7
F437922.0
sg8
I59175
sg9
I00
sg10
I-485813
sg11
S'rick.bergsieker@enron.com'
p103
sg13
I180250
sg14
g5
sg15
I233
sg16
g5
sg17
I59
sg18
I427316
sg19
g5
sg20
I250000
sg21
I659249
sg22
I4
sg23
I0
sg24
I659249
sg25
I187922
sg26
I618850
sg27
g5
ssS'URQUHART JOHN A'
p104
(dp105
g3
g5
sg4
g5
sg6
F0.0
sg7
F0.0
sg8
I228656
sg9
I00
sg10
I-36666
sg11
g5
sg13
g5
sg14
g5
sg15
g5
sg16
g5
sg17
g5
sg18
g5
sg19
I36666
sg20
g5
sg21
g5
sg22
g5
sg23
g5
sg24
g5
sg25
g5
sg26
I228656
sg27
g5
ssS'BIBI PHILIPPE A'
p106
(dp107
g3
I1607
sg4
g5
sg6
F0.0018822100789313905
sg7
F2679359.0
sg8
I38559
sg9
I00
sg10
g5
sg11
S'philippe.bibi@enron.com'
p108
sg13
I369721
sg14
g5
sg15
I1336
sg16
g5
sg17
I40
sg18
I425688
sg19
g5
sg20
I1000000
sg21
I1843816
sg22
I23
sg23
I8
sg24
I378082
sg25
I213625
sg26
I2047593
sg27
I1465734
ssS'RIEKER PAULA H'
p109
(dp110
g3
I1328
sg4
I214678
sg6
F0.005886524822695036
sg7
F2584439.0
sg8
I33271
sg9
I01
sg10
I-100000
sg11
S'paula.rieker@enron.com'
p111
sg13
g5
sg14
g5
sg15
I1258
sg16
g5
sg17
I82
sg18
I1950
sg19
g5
sg20
I700000
sg21
I1918887
sg22
I35
sg23
I48
sg24
I283649
sg25
I249201
sg26
I1099100
sg27
I1635238
ssS'WHALEY DAVID A'
p112
(dp113
g3
g5
sg4
g5
sg6
F0.0
sg7
F98718.0
sg8
g5
sg9
I00
sg10
g5
sg11
g5
sg13
g5
sg14
g5
sg15
g5
sg16
g5
sg17
g5
sg18
g5
sg19
g5
sg20
g5
sg21
I98718
sg22
g5
sg23
g5
sg24
g5
sg25
g5
sg26
g5
sg27
I98718
ssS'BECK SALLY W'
p114
(dp115
g3
I7315
sg4
g5
sg6
F0.00454623434551381
sg7
F931330.0
sg8
I37172
sg9
I00
sg10
g5
sg11
S'sally.beck@enron.com'
p116
sg13
g5
sg14
g5
sg15
I2639
sg16
g5
sg17
I4343
sg18
I566
sg19
g5
sg20
I700000
sg21
I126027
sg22
I144
sg23
I386
sg24
I126027
sg25
I231330
sg26
I969068
sg27
g5
ssS'HAUG DAVID L'
p117
(dp118
g3
I573
sg4
g5
sg6
F0.0018581081081081082
sg7
F0.0
sg8
I475
sg9
I00
sg10
g5
sg11
S'david.haug@enron.com'
p119
sg13
g5
sg14
g5
sg15
I471
sg16
g5
sg17
I19
sg18
g5
sg19
g5
sg20
g5
sg21
I2217299
sg22
I4
sg23
I7
sg24
I2217299
sg25
g5
sg26
I475
sg27
g5
ssS'ECHOLS JOHN B'
p120
(dp121
g3
g5
sg4
g5
sg6
F0.0
sg7
F983683.0
sg8
I21530
sg9
I00
sg10
g5
sg11
S'john.echols@enron.com'
p122
sg13
I2234774
sg14
g5
sg15
g5
sg16
g5
sg17
g5
sg18
I53775
sg19
g5
sg20
I200000
sg21
I1008941
sg22
g5
sg23
g5
sg24
I407503
sg25
I182245
sg26
I2692324
sg27
I601438
ssS'MENDELSOHN JOHN'
p123
(dp124
g3
g5
sg4
g5
sg6
F0.0
sg7
F0.0
sg8
I148
sg9
I00
sg10
I-103750
sg11
g5
sg13
g5
sg14
g5
sg15
g5
sg16
g5
sg17
g5
sg18
g5
sg19
I103750
sg20
g5
sg21
g5
sg22
g5
sg23
g5
sg24
g5
sg25
g5
sg26
I148
sg27
g5
ssS'HICKERSON GARY J'
p125
(dp126
g3
I1320
sg4
g5
sg6
F0.003043801039346697
sg7
F1911788.0
sg8
I98849
sg9
I00
sg10
g5
sg11
S'gary.hickerson@enron.com'
p127
sg13
I69223
sg14
g5
sg15
I900
sg16
g5
sg17
I27
sg18
I1936
sg19
g5
sg20
I1700000
sg21
I441096
sg22
I40
sg23
I1
sg24
I441096
sg25
I211788
sg26
I2081796
sg27
g5
ssS'CLINE KENNETH W'
p128
(dp129
g3
g5
sg4
g5
sg6
F0.0
sg7
F0.0
sg8
g5
sg9
I00
sg10
g5
sg11
g5
sg13
g5
sg14
I-472568
sg15
g5
sg16
g5
sg17
g5
sg18
g5
sg19
g5
sg20
g5
sg21
I189518
sg22
g5
sg23
g5
sg24
I662086
sg25
g5
sg26
g5
sg27
g5
ssS'LEWIS RICHARD'
p130
(dp131
g3
I952
sg4
g5
sg6
F0.0010224948875255625
sg7
F850477.0
sg8
g5
sg9
I00
sg10
g5
sg11
S'richard.lewis@enron.com'
p132
sg13
g5
sg14
g5
sg15
I739
sg16
g5
sg17
I26
sg18
g5
sg19
g5
sg20
g5
sg21
I850477
sg22
I10
sg23
I0
sg24
g5
sg25
g5
sg26
g5
sg27
I850477
ssS'HAYES ROBERT E'
p133
(dp134
g3
I504
sg4
I7961
sg6
F0.0031007751937984496
sg7
F0.0
sg8
g5
sg9
I00
sg10
g5
sg11
S'robert.hayes@enron.com'
p135
sg13
g5
sg14
g5
sg15
I50
sg16
g5
sg17
I12
sg18
g5
sg19
g5
sg20
g5
sg21
I151418
sg22
I16
sg23
I0
sg24
I151418
sg25
g5
sg26
I7961
sg27
g5
ssS'MCCARTY DANNY J'
p136
(dp137
g3
I1433
sg4
g5
sg6
F0.0016383495145631068
sg7
F664375.0
sg8
g5
sg9
I00
sg10
g5
sg11
S'danny.mccarty@enron.com'
p138
sg13
g5
sg14
g5
sg15
I508
sg16
g5
sg17
I215
sg18
g5
sg19
g5
sg20
g5
sg21
I758931
sg22
I25
sg23
I2
sg24
I94556
sg25
g5
sg26
g5
sg27
I664375
ssS'KOPPER MICHAEL J'
p139
(dp140
g3
g5
sg4
g5
sg6
F0.0
sg7
F1024305.0
sg8
I118134
sg9
I01
sg10
g5
sg11
S'michael.kopper@enron.com'
p141
sg13
I602671
sg14
g5
sg15
g5
sg16
g5
sg17
g5
sg18
I907502
sg19
g5
sg20
I800000
sg21
I985032
sg22
g5
sg23
g5
sg24
I985032
sg25
I224305
sg26
I2652612
sg27
g5
ssS'LEFF DANIEL P'
p142
(dp143
g3
I2822
sg4
g5
sg6
F0.0028076256499133447
sg7
F1273746.0
sg8
g5
sg9
I00
sg10
g5
sg11
S'dan.leff@enron.com'
p144
sg13
I1387399
sg14
g5
sg15
I2672
sg16
g5
sg17
I63
sg18
I3083
sg19
g5
sg20
I1000000
sg21
I360528
sg22
I67
sg23
I14
sg24
I360528
sg25
I273746
sg26
I2664228
sg27
g5
ssS'LAVORATO JOHN J'
p145
(dp146
g3
I7259
sg4
g5
sg6
F0.009538805363673304
sg7
F12498283.0
sg8
I49537
sg9
I00
sg10
g5
sg11
S'john.lavorato@enron.com'
p147
sg13
I2035380
sg14
g5
sg15
I3962
sg16
g5
sg17
I2585
sg18
I1552
sg19
g5
sg20
I8000000
sg21
I5167144
sg22
I528
sg23
I411
sg24
I1008149
sg25
I339288
sg26
I10425757
sg27
I4158995
ssS'BERBERIAN DAVID'
p148
(dp149
g3
g5
sg4
g5
sg6
F0.0
sg7
F1840978.0
sg8
I11892
sg9
I00
sg10
g5
sg11
S'david.berberian@enron.com'
p150
sg13
g5
sg14
g5
sg15
g5
sg16
g5
sg17
g5
sg18
g5
sg19
g5
sg20
g5
sg21
I2493616
sg22
g5
sg23
g5
sg24
I869220
sg25
I216582
sg26
I228474
sg27
I1624396
ssS'DETMERING TIMOTHY J'
p151
(dp152
g3
g5
sg4
I875307
sg6
F0.0
sg7
F2663365.0
sg8
I52255
sg9
I00
sg10
I-775241
sg11
S'timothy.detmering@enron.com'
p153
sg13
I415657
sg14
I-315068
sg15
g5
sg16
g5
sg17
g5
sg18
I1105
sg19
g5
sg20
I425000
sg21
I2027865
sg22
g5
sg23
g5
sg24
I315068
sg25
I210500
sg26
I1204583
sg27
I2027865
ssS'WAKEHAM JOHN'
p154
(dp155
g3
g5
sg4
g5
sg6
F0.0
sg7
F0.0
sg8
I103773
sg9
I00
sg10
g5
sg11
g5
sg13
g5
sg14
g5
sg15
g5
sg16
g5
sg17
g5
sg18
g5
sg19
I109298
sg20
g5
sg21
g5
sg22
g5
sg23
g5
sg24
g5
sg25
g5
sg26
I213071
sg27
g5
ssS'POWERS WILLIAM'
p156
(dp157
g3
I653
sg4
g5
sg6
F0.0
sg7
F0.0
sg8
g5
sg9
I00
sg10
I-17500
sg11
S'ken.powers@enron.com'
p158
sg13
g5
sg14
g5
sg15
I12
sg16
g5
sg17
I26
sg18
g5
sg19
I17500
sg20
g5
sg21
g5
sg22
I0
sg23
I0
sg24
g5
sg25
g5
sg26
g5
sg27
g5
ssS'GOLD JOSEPH'
p159
(dp160
g3
g5
sg4
g5
sg6
F0.0
sg7
F1459395.0
sg8
g5
sg9
I00
sg10
g5
sg11
S'joe.gold@enron.com'
p161
sg13
I304805
sg14
g5
sg15
g5
sg16
g5
sg17
g5
sg18
I819288
sg19
g5
sg20
I750000
sg21
I877611
sg22
g5
sg23
g5
sg24
I441096
sg25
I272880
sg26
I2146973
sg27
I436515
ssS'BANNANTINE JAMES M'
p162
(dp163
g3
I566
sg4
g5
sg6
F0.006554621848739496
sg7
F4046634.0
sg8
I56301
sg9
I00
sg10
I-5104
sg11
S'james.bannantine@enron.com'
p164
sg13
g5
sg14
I-560222
sg15
I465
sg16
g5
sg17
I29
sg18
I864523
sg19
g5
sg20
g5
sg21
I5243487
sg22
I39
sg23
I0
sg24
I1757552
sg25
I477
sg26
I916197
sg27
I4046157
ssS'DUNCAN JOHN H'
p165
(dp166
g3
g5
sg4
g5
sg6
F0.0
sg7
F371750.0
sg8
g5
sg9
I00
sg10
I-25000
sg11
g5
sg13
g5
sg14
g5
sg15
g5
sg16
g5
sg17
g5
sg18
g5
sg19
I102492
sg20
g5
sg21
I371750
sg22
g5
sg23
g5
sg24
g5
sg25
g5
sg26
I77492
sg27
I371750
ssS'SHAPIRO RICHARD S'
p167
(dp168
g3
I15149
sg4
g5
sg6
F0.000849425568320704
sg7
F1526913.0
sg8
I137767
sg9
I00
sg10
g5
sg11
S'richard.shapiro@enron.com'
p169
sg13
g5
sg14
g5
sg15
I4527
sg16
g5
sg17
I1215
sg18
I705
sg19
g5
sg20
I650000
sg21
I987001
sg22
I74
sg23
I65
sg24
I379164
sg25
I269076
sg26
I1057548
sg27
I607837
ssS'SHERRIFF JOHN R'
p170
(dp171
g3
I3187
sg4
g5
sg6
F0.0015553522415370541
sg7
F3764338.0
sg8
g5
sg9
I00
sg10
g5
sg11
S'john.sherriff@enron.com'
p172
sg13
I554422
sg14
g5
sg15
I2103
sg16
g5
sg17
I92
sg18
I1852186
sg19
g5
sg20
I1500000
sg21
I3128982
sg22
I28
sg23
I23
sg24
I1293424
sg25
I428780
sg26
I4335388
sg27
I1835558
ssS'SHELBY REX'
p173
(dp174
g3
I225
sg4
g5
sg6
F0.010227272727272727
sg7
F2036240.0
sg8
I22884
sg9
I01
sg10
I-4167
sg11
S'rex.shelby@enron.com'
p175
sg13
g5
sg14
g5
sg15
I91
sg16
g5
sg17
I39
sg18
I1573324
sg19
g5
sg20
I200000
sg21
I2493616
sg22
I13
sg23
I14
sg24
I869220
sg25
I211844
sg26
I2003885
sg27
I1624396
ssS'LEMAISTRE CHARLES'
p176
(dp177
g3
g5
sg4
g5
sg6
F0.0
sg7
F412878.0
sg8
g5
sg9
I00
sg10
I-25000
sg11
g5
sg13
g5
sg14
g5
sg15
g5
sg16
g5
sg17
g5
sg18
g5
sg19
I112492
sg20
g5
sg21
I412878
sg22
g5
sg23
g5
sg24
g5
sg25
g5
sg26
I87492
sg27
I412878
ssS'DEFFNER JOSEPH M'
p178
(dp179
g3
I714
sg4
g5
sg6
F0.015101522842639594
sg7
F823499.0
sg8
I41626
sg9
I00
sg10
g5
sg11
S'joseph.deffner@enron.com'
p180
sg13
I335349
sg14
g5
sg15
I552
sg16
g5
sg17
I74
sg18
I25553
sg19
g5
sg20
I600000
sg21
I159211
sg22
I115
sg23
I4
sg24
I141833
sg25
I206121
sg26
I1208649
sg27
I17378
ssS'KISHKILL JOSEPH G'
p181
(dp182
g3
g5
sg4
g5
sg6
F0.0
sg7
F174246.0
sg8
I116335
sg9
I00
sg10
I-51042
sg11
S'joe.kishkill@enron.com'
p183
sg13
g5
sg14
g5
sg15
g5
sg16
g5
sg17
g5
sg18
I465357
sg19
g5
sg20
g5
sg21
I1034346
sg22
g5
sg23
g5
sg24
I1034346
sg25
I174246
sg26
I704896
sg27
g5
ssS'WHALLEY LAWRENCE G'
p184
(dp185
g3
I6019
sg4
g5
sg6
F0.003193916349809886
sg7
F6793324.0
sg8
I57838
sg9
I00
sg10
g5
sg11
S'greg.whalley@enron.com'
p186
sg13
I808346
sg14
g5
sg15
I3920
sg16
g5
sg17
I556
sg18
I301026
sg19
g5
sg20
I3000000
sg21
I6079137
sg22
I186
sg23
I24
sg24
I2796177
sg25
I510364
sg26
I4677574
sg27
I3282960
ssS'MCCONNELL MICHAEL S'
p187
(dp188
g3
I3329
sg4
g5
sg6
F0.004710920770877944
sg7
F3088048.0
sg8
I81364
sg9
I00
sg10
g5
sg11
S'mike.mcconnell@enron.com'
p189
sg13
I554422
sg14
g5
sg15
I2189
sg16
g5
sg17
I2742
sg18
I540
sg19
g5
sg20
I1100000
sg21
I3101279
sg22
I92
sg23
I194
sg24
I1478269
sg25
I365038
sg26
I2101364
sg27
I1623010
ssS'PIRO JIM'
p190
(dp191
g3
I58
sg4
g5
sg6
F0.0013513513513513514
sg7
F0.0
sg8
g5
sg9
I00
sg10
g5
sg11
S'jim.piro@enron.com'
p192
sg13
g5
sg14
g5
sg15
I3
sg16
g5
sg17
I16
sg18
g5
sg19
g5
sg20
g5
sg21
I47304
sg22
I0
sg23
I1
sg24
I47304
sg25
g5
sg26
g5
sg27
g5
ssS'DELAINEY DAVID W'
p193
(dp194
g3
I3093
sg4
g5
sg6
F0.010954235637779941
sg7
F5656276.0
sg8
I86174
sg9
I01
sg10
g5
sg11
S'david.delainey@enron.com'
p195
sg13
I1294981
sg14
g5
sg15
I2097
sg16
g5
sg17
I3069
sg18
I1661
sg19
g5
sg20
I3000000
sg21
I3614261
sg22
I66
sg23
I609
sg24
I1323148
sg25
I365163
sg26
I4747979
sg27
I2291113
ssS'SULLIVAN-SHAKLOVITZ COLLEEN'
p196
(dp197
g3
g5
sg4
I181993
sg6
F0.0
sg7
F1625154.0
sg8
g5
sg9
I00
sg10
g5
sg11
g5
sg13
I554422
sg14
g5
sg15
g5
sg16
g5
sg17
g5
sg18
I162
sg19
g5
sg20
I100000
sg21
I1362375
sg22
g5
sg23
g5
sg24
g5
sg25
I162779
sg26
I999356
sg27
I1362375
ssS'WROBEL BRUCE'
p198
(dp199
g3
g5
sg4
g5
sg6
F0.0
sg7
F139130.0
sg8
g5
sg9
I00
sg10
g5
sg11
g5
sg13
g5
sg14
g5
sg15
g5
sg16
g5
sg17
g5
sg18
g5
sg19
g5
sg20
g5
sg21
I139130
sg22
g5
sg23
g5
sg24
g5
sg25
g5
sg26
g5
sg27
I139130
ssS'LINDHOLM TOD A'
p200
(dp201
g3
g5
sg4
I204075
sg6
F0.0
sg7
F2985818.0
sg8
I57727
sg9
I00
sg10
g5
sg11
S'tod.lindholm@enron.com'
p202
sg13
I175000
sg14
g5
sg15
g5
sg16
g5
sg17
g5
sg18
I2630
sg19
g5
sg20
I200000
sg21
I3064208
sg22
g5
sg23
g5
sg24
I514847
sg25
I236457
sg26
I875889
sg27
I2549361
ssS'MEYER JEROME J'
p203
(dp204
g3
g5
sg4
g5
sg6
F0.0
sg7
F0.0
sg8
I2151
sg9
I00
sg10
I-38346
sg11
g5
sg13
g5
sg14
g5
sg15
g5
sg16
g5
sg17
g5
sg18
g5
sg19
I38346
sg20
g5
sg21
g5
sg22
g5
sg23
g5
sg24
g5
sg25
g5
sg26
I2151
sg27
g5
ssS'LAY KENNETH L'
p205
(dp206
g3
I4273
sg4
I202911
sg6
F0.0032258064516129032
sg7
F42420705.0
sg8
I99832
sg9
I01
sg10
I-300000
sg11
S'kenneth.lay@enron.com'
p207
sg13
I3600000
sg14
g5
sg15
I2411
sg16
I81525000
sg17
I36
sg18
I10359729
sg19
g5
sg20
I7000000
sg21
I49110078
sg22
I123
sg23
I16
sg24
I14761694
sg25
I1072321
sg26
I103559793
sg27
I34348384
ssS'BUTTS ROBERT H'
p208
(dp209
g3
g5
sg4
g5
sg6
F0.0
sg7
F1011516.0
sg8
I9410
sg9
I00
sg10
I-75000
sg11
S'bob.butts@enron.com'
p210
sg13
I175000
sg14
g5
sg15
g5
sg16
g5
sg17
g5
sg18
I150656
sg19
g5
sg20
I750000
sg21
I417619
sg22
g5
sg23
g5
sg24
I417619
sg25
I261516
sg26
I1271582
sg27
g5
ssS'OLSON CINDY K'
p211
(dp212
g3
I1184
sg4
I77716
sg6
F0.0028317152103559872
sg7
F2716112.0
sg8
I63791
sg9
I00
sg10
g5
sg11
S'cindy.olson@enron.com'
p213
sg13
I100000
sg14
g5
sg15
I856
sg16
g5
sg17
I52
sg18
I972
sg19
g5
sg20
I750000
sg21
I2606763
sg22
I20
sg23
I15
sg24
I969729
sg25
I329078
sg26
I1321557
sg27
I1637034
ssS'MCDONALD REBECCA'
p214
(dp215
g3
I894
sg4
g5
sg6
F0.006063947078280044
sg7
F757301.0
sg8
g5
sg9
I00
sg10
g5
sg11
S'rebecca.mcdonald@enron.com'
p216
sg13
g5
sg14
g5
sg15
I720
sg16
g5
sg17
I13
sg18
g5
sg19
g5
sg20
g5
sg21
I1691366
sg22
I54
sg23
I1
sg24
I934065
sg25
g5
sg26
g5
sg27
I757301
ssS'CUMBERLAND MICHAEL S'
p217
(dp218
g3
g5
sg4
g5
sg6
F0.0
sg7
F509899.0
sg8
I22344
sg9
I00
sg10
g5
sg11
g5
sg13
I275000
sg14
g5
sg15
g5
sg16
g5
sg17
g5
sg18
I713
sg19
g5
sg20
I325000
sg21
I207940
sg22
g5
sg23
g5
sg24
I207940
sg25
I184899
sg26
I807956
sg27
g5
ssS'GAHN ROBERT S'
p219
(dp220
g3
g5
sg4
I73122
sg6
F0.0
sg7
F785115.0
sg8
I50080
sg9
I00
sg10
I-1042
sg11
g5
sg13
g5
sg14
g5
sg15
g5
sg16
g5
sg17
g5
sg18
I76547
sg19
g5
sg20
I509870
sg21
I318607
sg22
g5
sg23
g5
sg24
I235370
sg25
I192008
sg26
I900585
sg27
I83237
ssS'MCCLELLAN GEORGE'
p221
(dp222
g3
I1744
sg4
g5
sg6
F0.0029001673173452316
sg7
F1670178.0
sg8
I228763
sg9
I00
sg10
I-125000
sg11
S'george.mcclellan@enron.com'
p223
sg13
g5
sg14
g5
sg15
I1469
sg16
g5
sg17
I49
sg18
I51587
sg19
g5
sg20
I900000
sg21
I947861
sg22
I52
sg23
I0
sg24
I441096
sg25
I263413
sg26
I1318763
sg27
I506765
ssS'HERMANN ROBERT J'
p224
(dp225
g3
g5
sg4
g5
sg6
F0.0
sg7
F1150163.0
sg8
I48357
sg9
I00
sg10
I-280000
sg11
S'robert.hermann@enron.com'
p226
sg13
I150000
sg14
g5
sg15
g5
sg16
g5
sg17
g5
sg18
I416441
sg19
g5
sg20
I700000
sg21
I668132
sg22
g5
sg23
g5
sg24
I480632
sg25
I262663
sg26
I1297461
sg27
I187500
ssS'SCRIMSHAW MATTHEW'
p227
(dp228
g3
g5
sg4
g5
sg6
F0.0
sg7
F759557.0
sg8
g5
sg9
I00
sg10
g5
sg11
S'matthew.scrimshaw@enron.com'
p229
sg13
g5
sg14
g5
sg15
g5
sg16
g5
sg17
g5
sg18
g5
sg19
g5
sg20
g5
sg21
I759557
sg22
g5
sg23
g5
sg24
g5
sg25
g5
sg26
g5
sg27
I759557
ssS'GATHMANN WILLIAM D'
p230
(dp231
g3
g5
sg4
g5
sg6
F0.0
sg7
F1753766.0
sg8
g5
sg9
I00
sg10
g5
sg11
g5
sg13
g5
sg14
I-72419
sg15
g5
sg16
g5
sg17
g5
sg18
g5
sg19
g5
sg20
g5
sg21
I1945360
sg22
g5
sg23
g5
sg24
I264013
sg25
g5
sg26
g5
sg27
I1753766
ssS'HAEDICKE MARK E'
p232
(dp233
g3
I4009
sg4
I2157527
sg6
F0.0040504201680672276
sg7
F2132875.0
sg8
I76169
sg9
I00
sg10
I-934484
sg11
S'mark.haedicke@enron.com'
p234
sg13
I983346
sg14
I-329825
sg15
I1847
sg16
g5
sg17
I1941
sg18
I52382
sg19
g5
sg20
I1150000
sg21
I803094
sg22
I180
sg23
I61
sg24
I524169
sg25
I374125
sg26
I3859065
sg27
I608750
ssS'BOWEN JR RAYMOND M'
p235
(dp236
g3
I1858
sg4
g5
sg6
F0.008222811671087533
sg7
F1628601.0
sg8
I65907
sg9
I01
sg10
I-833
sg11
S'raymond.bowen@enron.com'
p237
sg13
I974293
sg14
g5
sg15
I1593
sg16
g5
sg17
I27
sg18
I1621
sg19
g5
sg20
I1350000
sg21
I252055
sg22
I140
sg23
I15
sg24
I252055
sg25
I278601
sg26
I2669589
sg27
g5
ssS'GILLIS JOHN'
p238
(dp239
g3
g5
sg4
g5
sg6
F0.0
sg7
F9803.0
sg8
g5
sg9
I00
sg10
g5
sg11
g5
sg13
g5
sg14
g5
sg15
g5
sg16
g5
sg17
g5
sg18
g5
sg19
g5
sg20
g5
sg21
I85641
sg22
g5
sg23
g5
sg24
I75838
sg25
g5
sg26
g5
sg27
I9803
ssS'FITZGERALD JAY L'
p240
(dp241
g3
I936
sg4
g5
sg6
F0.0009453781512605042
sg7
F1213618.0
sg8
I23870
sg9
I00
sg10
g5
sg11
S'jay.fitzgerald@enron.com'
p242
sg13
I556416
sg14
g5
sg15
I723
sg16
g5
sg17
I16
sg18
I285414
sg19
g5
sg20
I350000
sg21
I1621236
sg22
I1
sg23
I8
sg24
I956775
sg25
I199157
sg26
I1414857
sg27
I664461
ssS'MORAN MICHAEL P'
p243
(dp244
g3
I672
sg4
g5
sg6
F0.0
sg7
F59539.0
sg8
g5
sg9
I00
sg10
g5
sg11
S'michael.moran@enron.com'
p245
sg13
g5
sg14
g5
sg15
I127
sg16
g5
sg17
I19
sg18
g5
sg19
g5
sg20
g5
sg21
I221141
sg22
I0
sg23
I0
sg24
I161602
sg25
g5
sg26
g5
sg27
I59539
ssS'REDMOND BRIAN L'
p246
(dp247
g3
I1671
sg4
g5
sg6
F0.013372093023255814
sg7
F7605879.0
sg8
I14689
sg9
I00
sg10
g5
sg11
S'brian.redmond@enron.com'
p248
sg13
g5
sg14
g5
sg15
I1063
sg16
g5
sg17
I221
sg18
g5
sg19
g5
sg20
g5
sg21
I7890324
sg22
I204
sg23
I49
sg24
I381285
sg25
I96840
sg26
I111529
sg27
I7509039
ssS'BAZELIDES PHILIP J'
p249
(dp250
g3
g5
sg4
I684694
sg6
F0.0
sg7
F1680459.0
sg8
g5
sg9
I00
sg10
g5
sg11
g5
sg13
I93750
sg14
g5
sg15
g5
sg16
g5
sg17
g5
sg18
I874
sg19
g5
sg20
g5
sg21
I1599641
sg22
g5
sg23
g5
sg24
g5
sg25
I80818
sg26
I860136
sg27
I1599641
ssS'BELDEN TIMOTHY N'
p251
(dp252
g3
I7991
sg4
I2144013
sg6
F0.003964601769911504
sg7
F6417134.0
sg8
I17355
sg9
I01
sg10
I-2334434
sg11
S'tim.belden@enron.com'
p253
sg13
g5
sg14
g5
sg15
I5521
sg16
g5
sg17
I484
sg18
I210698
sg19
g5
sg20
I5249999
sg21
I1110705
sg22
I228
sg23
I108
sg24
I157569
sg25
I213999
sg26
I5501630
sg27
I953136
ssS'DURAN WILLIAM D'
p254
(dp255
g3
I904
sg4
g5
sg6
F0.011899563318777293
sg7
F2412561.0
sg8
I25785
sg9
I00
sg10
g5
sg11
S'w.duran@enron.com'
p256
sg13
I1105218
sg14
g5
sg15
I599
sg16
g5
sg17
I12
sg18
I1568
sg19
g5
sg20
I750000
sg21
I1640910
sg22
I106
sg23
I3
sg24
I189041
sg25
I210692
sg26
I2093263
sg27
I1451869
ssS'THORN TERENCE H'
p257
(dp258
g3
I266
sg4
I16586
sg6
F0.0
sg7
F4674569.0
sg8
I46145
sg9
I00
sg10
g5
sg11
S'terence.thorn@enron.com'
p259
sg13
I200000
sg14
g5
sg15
I73
sg16
g5
sg17
I41
sg18
I426629
sg19
g5
sg20
g5
sg21
I4817796
sg22
I0
sg23
I0
sg24
I365320
sg25
I222093
sg26
I911453
sg27
I4452476
ssS'FASTOW ANDREW S'
p260
(dp261
g3
g5
sg4
g5
sg6
F0.0
sg7
F1740698.0
sg8
I55921
sg9
I01
sg10
I-1386055
sg11
S'andrew.fastow@enron.com'
p262
sg13
I1736055
sg14
g5
sg15
g5
sg16
g5
sg17
g5
sg18
I277464
sg19
g5
sg20
I1300000
sg21
I1794412
sg22
g5
sg23
g5
sg24
I1794412
sg25
I440698
sg26
I2424083
sg27
g5
ssS'FOY JOE'
p263
(dp264
g3
I57
sg4
I181755
sg6
F0.0
sg7
F343434.0
sg8
g5
sg9
I00
sg10
g5
sg11
S'tracy.foy@enron.com'
p265
sg13
g5
sg14
g5
sg15
I2
sg16
g5
sg17
I13
sg18
g5
sg19
g5
sg20
g5
sg21
I343434
sg22
I0
sg23
I0
sg24
g5
sg25
g5
sg26
I181755
sg27
I343434
ssS'CALGER CHRISTOPHER F'
p266
(dp267
g3
I2598
sg4
g5
sg6
F0.008169219547775348
sg7
F1490189.0
sg8
I35818
sg9
I01
sg10
I-262500
sg11
S'christopher.calger@enron.com'
p268
sg13
I375304
sg14
g5
sg15
I2188
sg16
g5
sg17
I144
sg18
I486
sg19
g5
sg20
I1250000
sg21
I126027
sg22
I199
sg23
I25
sg24
I126027
sg25
I240189
sg26
I1639297
sg27
g5
ssS'RICE KENNETH D'
p269
(dp270
g3
I905
sg4
g5
sg6
F0.004983748645720478
sg7
F21964811.0
sg8
I46950
sg9
I01
sg10
I-3504386
sg11
S'ken.rice@enron.com'
p271
sg13
I1617011
sg14
g5
sg15
I864
sg16
g5
sg17
I18
sg18
I174839
sg19
g5
sg20
I1750000
sg21
I22542539
sg22
I42
sg23
I4
sg24
I2748364
sg25
I420636
sg26
I505050
sg27
I19794175
ssS'KAMINSKI WINCENTY J'
p272
(dp273
g3
I4607
sg4
g5
sg6
F0.001117259552042161
sg7
F1525111.0
sg8
I83585
sg9
I00
sg10
g5
sg11
S'vince.kaminski@enron.com'
p274
sg13
I323466
sg14
g5
sg15
I583
sg16
g5
sg17
I14368
sg18
I4669
sg19
g5
sg20
I400000
sg21
I976037
sg22
I41
sg23
I171
sg24
I126027
sg25
I275101
sg26
I1086821
sg27
I850010
ssS'LOCKHART EUGENE E'
p275
(dp276
g3
g5
sg4
g5
sg6
F0.0
sg7
F0.0
sg8
g5
sg9
I00
sg10
g5
sg11
g5
sg13
g5
sg14
g5
sg15
g5
sg16
g5
sg17
g5
sg18
g5
sg19
g5
sg20
g5
sg21
g5
sg22
g5
sg23
g5
sg24
g5
sg25
g5
sg26
g5
sg27
g5
ssS'COX DAVID'
p277
(dp278
g3
I102
sg4
g5
sg6
F0.0029629629629629632
sg7
F1231839.0
sg8
I27861
sg9
I00
sg10
I-41250
sg11
S'chip.cox@enron.com'
p279
sg13
g5
sg14
g5
sg15
I71
sg16
g5
sg17
I33
sg18
I494
sg19
g5
sg20
I800000
sg21
I495633
sg22
I0
sg23
I4
sg24
I378082
sg25
I314288
sg26
I1101393
sg27
I117551
ssS'OVERDYKE JR JERE C'
p280
(dp281
g3
g5
sg4
g5
sg6
F0.0
sg7
F5361519.0
sg8
I18834
sg9
I00
sg10
g5
sg11
S'jere.overdyke@enron.com'
p282
sg13
I135836
sg14
g5
sg15
g5
sg16
g5
sg17
g5
sg18
I176
sg19
g5
sg20
g5
sg21
I7307594
sg22
g5
sg23
g5
sg24
I2041016
sg25
I94941
sg26
I249787
sg27
I5266578
ssS'PEREIRA PAULO V. FERRAZ'
p283
(dp284
g3
g5
sg4
g5
sg6
F0.0
sg7
F0.0
sg8
I27942
sg9
I00
sg10
I-101250
sg11
g5
sg13
g5
sg14
g5
sg15
g5
sg16
g5
sg17
g5
sg18
g5
sg19
I101250
sg20
g5
sg21
g5
sg22
g5
sg23
g5
sg24
g5
sg25
g5
sg26
I27942
sg27
g5
ssS'STABLER FRANK'
p285
(dp286
g3
g5
sg4
g5
sg6
F0.0
sg7
F739502.0
sg8
I16514
sg9
I00
sg10
g5
sg11
S'frank.stabler@enron.com'
p287
sg13
g5
sg14
g5
sg15
g5
sg16
g5
sg17
g5
sg18
I356071
sg19
g5
sg20
I500000
sg21
I511734
sg22
g5
sg23
g5
sg24
I511734
sg25
I239502
sg26
I1112087
sg27
g5
ssS'SKILLING JEFFREY K'
p288
(dp289
g3
I3627
sg4
g5
sg6
F0.0031593038821954487
sg7
F25961258.0
sg8
I29336
sg9
I01
sg10
g5
sg11
S'jeff.skilling@enron.com'
p290
sg13
I1920000
sg14
g5
sg15
I2042
sg16
g5
sg17
I108
sg18
I22122
sg19
g5
sg20
I5600000
sg21
I26093672
sg22
I88
sg23
I30
sg24
I6843672
sg25
I1111258
sg26
I8682716
sg27
I19250000
ssS'BLAKE JR. NORMAN P'
p291
(dp292
g3
g5
sg4
g5
sg6
F0.0
sg7
F0.0
sg8
I1279
sg9
I00
sg10
I-113784
sg11
g5
sg13
g5
sg14
g5
sg15
g5
sg16
g5
sg17
g5
sg18
g5
sg19
I113784
sg20
g5
sg21
g5
sg22
g5
sg23
g5
sg24
g5
sg25
g5
sg26
I1279
sg27
g5
ssS'SHERRICK JEFFREY B'
p293
(dp294
g3
I613
sg4
g5
sg6
F0.008934169278996866
sg7
F1426469.0
sg8
g5
sg9
I00
sg10
g5
sg11
S'jeffrey.sherrick@enron.com'
p295
sg13
g5
sg14
g5
sg15
I583
sg16
g5
sg17
I25
sg18
g5
sg19
g5
sg20
g5
sg21
I1832468
sg22
I39
sg23
I18
sg24
I405999
sg25
g5
sg26
g5
sg27
I1426469
ssS'PRENTICE JAMES'
p296
(dp297
g3
g5
sg4
I564348
sg6
F0.0
sg7
F886231.0
sg8
g5
sg9
I00
sg10
g5
sg11
S'james.prentice@enron.com'
p298
sg13
g5
sg14
g5
sg15
g5
sg16
g5
sg17
g5
sg18
g5
sg19
g5
sg20
g5
sg21
I1095040
sg22
g5
sg23
g5
sg24
I208809
sg25
g5
sg26
I564348
sg27
I886231
ssS'GRAY RODNEY'
p299
(dp300
g3
g5
sg4
I93585
sg6
F0.0
sg7
F6615.0
sg8
g5
sg9
I00
sg10
g5
sg11
g5
sg13
I365625
sg14
g5
sg15
g5
sg16
g5
sg17
g5
sg18
I680833
sg19
g5
sg20
g5
sg21
g5
sg22
g5
sg23
g5
sg24
g5
sg25
I6615
sg26
I1146658
sg27
g5
ssS'PICKERING MARK R'
p301
(dp302
g3
I898
sg4
g5
sg6
F0.0007253886010362695
sg7
F983835.0
sg8
I31653
sg9
I00
sg10
g5
sg11
S'mark.pickering@enron.com'
p303
sg13
g5
sg14
g5
sg15
I728
sg16
I400000
sg17
I67
sg18
g5
sg19
g5
sg20
I300000
sg21
I28798
sg22
I7
sg23
I0
sg24
g5
sg25
I655037
sg26
I1386690
sg27
I28798
ssS'NOLES JAMES L'
p304
(dp305
g3
g5
sg4
I774401
sg6
F0.0
sg7
F0.0
sg8
g5
sg9
I00
sg10
g5
sg11
g5
sg13
g5
sg14
I-94556
sg15
g5
sg16
g5
sg17
g5
sg18
g5
sg19
g5
sg20
g5
sg21
I368705
sg22
g5
sg23
g5
sg24
I463261
sg25
g5
sg26
I774401
sg27
g5
ssS'KEAN STEVEN J'
p306
(dp307
g3
I12754
sg4
g5
sg6
F0.0027007635935017683
sg7
F3426386.0
sg8
I41953
sg9
I00
sg10
g5
sg11
S'steven.kean@enron.com'
p308
sg13
I300000
sg14
g5
sg15
I3639
sg16
g5
sg17
I6759
sg18
I1231
sg19
g5
sg20
I1000000
sg21
I6153642
sg22
I140
sg23
I387
sg24
I4131594
sg25
I404338
sg26
I1747522
sg27
I2022048
ssS'FOWLER PEGGY'
p309
(dp310
g3
I517
sg4
g5
sg6
F0.0
sg7
F1324578.0
sg8
g5
sg9
I00
sg10
g5
sg11
S'kulvinder.fowler@enron.com'
p311
sg13
g5
sg14
g5
sg15
I10
sg16
g5
sg17
I36
sg18
g5
sg19
g5
sg20
g5
sg21
I1884748
sg22
I0
sg23
I0
sg24
I560170
sg25
g5
sg26
g5
sg27
I1324578
ssS'WASAFF GEORGE'
p312
(dp313
g3
I400
sg4
I831299
sg6
F0.006744186046511629
sg7
F2253256.0
sg8
g5
sg9
I00
sg10
I-583325
sg11
S'george.wasaff@enron.com'
p314
sg13
I200000
sg14
g5
sg15
I337
sg16
g5
sg17
I30
sg18
I1425
sg19
g5
sg20
I325000
sg21
I2056427
sg22
I22
sg23
I7
sg24
I388167
sg25
I259996
sg26
I1034395
sg27
I1668260
ssS'WHITE JR THOMAS E'
p315
(dp316
g3
g5
sg4
g5
sg6
F0.0
sg7
F2064592.0
sg8
I81353
sg9
I00
sg10
g5
sg11
S'thomas.white@enron.com'
p317
sg13
g5
sg14
g5
sg15
g5
sg16
g5
sg17
g5
sg18
I1085463
sg19
g5
sg20
I450000
sg21
I15144123
sg22
g5
sg23
g5
sg24
I13847074
sg25
I317543
sg26
I1934359
sg27
I1297049
ssS'CHRISTODOULOU DIOMEDES'
p318
(dp319
g3
g5
sg4
g5
sg6
F0.0
sg7
F5127155.0
sg8
g5
sg9
I00
sg10
g5
sg11
S'diomedes.christodoulou@enron.com'
p320
sg13
g5
sg14
g5
sg15
g5
sg16
g5
sg17
g5
sg18
g5
sg19
g5
sg20
g5
sg21
I6077885
sg22
g5
sg23
g5
sg24
I950730
sg25
g5
sg26
g5
sg27
I5127155
ssS'ALLEN PHILLIP K'
p321
(dp322
g3
I2902
sg4
I2869717
sg6
F0.00219737100255052
sg7
F6106496.0
sg8
I13868
sg9
I00
sg10
I-3081055
sg11
S'phillip.allen@enron.com'
p323
sg13
I304805
sg14
I-126027
sg15
I1407
sg16
g5
sg17
I2195
sg18
I152
sg19
g5
sg20
I4175000
sg21
I1729541
sg22
I47
sg23
I65
sg24
I126027
sg25
I201955
sg26
I4484442
sg27
I1729541
ssS'SHARP VICTORIA T'
p324
(dp325
g3
I3136
sg4
I187469
sg6
F0.0009168704156479218
sg7
F1129219.0
sg8
I116337
sg9
I00
sg10
g5
sg11
S'vicki.sharp@enron.com'
p326
sg13
I422158
sg14
g5
sg15
I2477
sg16
g5
sg17
I136
sg18
I2401
sg19
g5
sg20
I600000
sg21
I494136
sg22
I24
sg23
I6
sg24
I213063
sg25
I248146
sg26
I1576511
sg27
I281073
ssS'JAEDICKE ROBERT'
p327
(dp328
g3
g5
sg4
g5
sg6
F0.0
sg7
F431750.0
sg8
g5
sg9
I00
sg10
I-25000
sg11
g5
sg13
g5
sg14
I-44093
sg15
g5
sg16
g5
sg17
g5
sg18
g5
sg19
I108750
sg20
g5
sg21
I431750
sg22
g5
sg23
g5
sg24
I44093
sg25
g5
sg26
I83750
sg27
I431750
ssS'WINOKUR JR. HERBERT S'
p329
(dp330
g3
g5
sg4
g5
sg6
F0.0
sg7
F0.0
sg8
I1413
sg9
I00
sg10
I-25000
sg11
g5
sg13
g5
sg14
g5
sg15
g5
sg16
g5
sg17
g5
sg18
g5
sg19
I108579
sg20
g5
sg21
g5
sg22
g5
sg23
g5
sg24
g5
sg25
g5
sg26
I84992
sg27
g5
ssS'BROWN MICHAEL'
p331
(dp332
g3
I1486
sg4
g5
sg6
F0.0009168303863785201
sg7
F0.0
sg8
I49288
sg9
I00
sg10
g5
sg11
S'michael.brown@enron.com'
p333
sg13
g5
sg14
g5
sg15
I761
sg16
g5
sg17
I41
sg18
g5
sg19
g5
sg20
g5
sg21
g5
sg22
I13
sg23
I1
sg24
g5
sg25
g5
sg26
I49288
sg27
g5
ssS'BADUM JAMES P'
p334
(dp335
g3
g5
sg4
I178980
sg6
F0.0
sg7
F257817.0
sg8
I3486
sg9
I00
sg10
g5
sg11
g5
sg13
g5
sg14
g5
sg15
g5
sg16
g5
sg17
g5
sg18
g5
sg19
g5
sg20
g5
sg21
I257817
sg22
g5
sg23
g5
sg24
g5
sg25
g5
sg26
I182466
sg27
I257817
ssS'HUGHES JAMES A'
p336
(dp337
g3
I719
sg4
g5
sg6
F0.005312084993359893
sg7
F754966.0
sg8
g5
sg9
I00
sg10
g5
sg11
S'james.hughes@enron.com'
p338
sg13
g5
sg14
g5
sg15
I589
sg16
g5
sg17
I34
sg18
g5
sg19
g5
sg20
g5
sg21
I1118394
sg22
I35
sg23
I5
sg24
I363428
sg25
g5
sg26
g5
sg27
I754966
ssS'REYNOLDS LAWRENCE'
p339
(dp340
g3
g5
sg4
I51365
sg6
F0.0
sg7
F4337071.0
sg8
I8409
sg9
I00
sg10
I-200000
sg11
g5
sg13
I156250
sg14
I-140264
sg15
g5
sg16
g5
sg17
g5
sg18
I202052
sg19
g5
sg20
I100000
sg21
I4221891
sg22
g5
sg23
g5
sg24
I201483
sg25
I76399
sg26
I394475
sg27
I4160672
ssS'DIMICHELE RICHARD G'
p341
(dp342
g3
g5
sg4
g5
sg6
F0.0
sg7
F9454543.0
sg8
I35812
sg9
I00
sg10
g5
sg11
S'richard.dimichele@enron.com'
p343
sg13
I694862
sg14
g5
sg15
g5
sg16
g5
sg17
g5
sg18
I374689
sg19
g5
sg20
I1000000
sg21
I8317782
sg22
g5
sg23
g5
sg24
I126027
sg25
I262788
sg26
I2368151
sg27
I8191755
ssS'BHATNAGAR SANJAY'
p344
(dp345
g3
I523
sg4
g5
sg6
F0.00018115942028985507
sg7
F2604490.0
sg8
g5
sg9
I00
sg10
g5
sg11
S'sanjay.bhatnagar@enron.com'
p346
sg13
g5
sg14
I15456290
sg15
I463
sg16
g5
sg17
I29
sg18
I137864
sg19
I137864
sg20
g5
sS'total_stock_value'
p347
S'NaN'
p348
sg22
I0
sg23
I1
sg24
I-2604490
sg25
g5
sg26
I15456290
sg27
I2604490
ssS'CARTER REBECCA C'
p349
(dp350
g3
I312
sg4
g5
sg6
F0.011009174311926606
sg7
F561809.0
sg8
g5
sg9
I00
sg10
I-159792
sg11
S'rebecca.carter@enron.com'
p351
sg13
I75000
sg14
I-307301
sg15
I196
sg16
g5
sg17
I15
sg18
I540
sg19
g5
sg20
I300000
sg21
g5
sg22
I29
sg23
I7
sg24
I307301
sg25
I261809
sg26
I477557
sg27
g5
ssS'BUCHANAN HAROLD G'
p352
(dp353
g3
I1088
sg4
g5
sg6
F0.0
sg7
F1573481.0
sg8
I600
sg9
I00
sg10
g5
sg11
S'john.buchanan@enron.com'
p354
sg13
I304805
sg14
g5
sg15
I23
sg16
g5
sg17
I125
sg18
I1215
sg19
g5
sg20
I500000
sg21
I1014505
sg22
I0
sg23
I0
sg24
I189041
sg25
I248017
sg26
I1054637
sg27
I825464
ssS'YEAP SOON'
p355
(dp356
g3
g5
sg4
g5
sg6
F0.0
sg7
F192758.0
sg8
I55097
sg9
I00
sg10
g5
sg11
g5
sg13
g5
sg14
g5
sg15
g5
sg16
g5
sg17
g5
sg18
g5
sg19
g5
sg20
g5
sg21
I192758
sg22
g5
sg23
g5
sg24
g5
sg25
g5
sg26
I55097
sg27
I192758
ssS'MURRAY JULIA H'
p357
(dp358
g3
I2192
sg4
g5
sg6
F0.000581135449262405
sg7
F1029762.0
sg8
I57580
sg9
I00
sg10
g5
sg11
S'julia.murray@enron.com'
p359
sg13
I125000
sg14
g5
sg15
I395
sg16
g5
sg17
I45
sg18
I330
sg19
g5
sg20
I400000
sg21
I597461
sg22
I11
sg23
I2
sg24
I196983
sg25
I229284
sg26
I812194
sg27
I400478
ssS'GARLAND C KEVIN'
p360
(dp361
g3
I209
sg4
g5
sg6
F0.014624505928853756
sg7
F1718192.0
sg8
I48405
sg9
I00
sg10
g5
sg11
S'kevin.garland@enron.com'
p362
sg13
I375304
sg14
g5
sg15
I178
sg16
g5
sg17
I44
sg18
I60814
sg19
g5
sg20
I850000
sg21
I896153
sg22
I10
sg23
I27
sg24
I259907
sg25
I231946
sg26
I1566469
sg27
I636246
ssS'DODSON KEITH'
p363
(dp364
g3
I176
sg4
g5
sg6
F0.006842105263157895
sg7
F291003.0
sg8
I28164
sg9
I00
sg10
g5
sg11
S'keith.dodson@enron.com'
p365
sg13
g5
sg14
g5
sg15
I114
sg16
g5
sg17
I14
sg18
I774
sg19
g5
sg20
I70000
sg21
g5
sg22
I10
sg23
I3
sg24
g5
sg25
I221003
sg26
I319941
sg27
g5
ssS'YEAGER F SCOTT'
p366
(dp367
g3
g5
sg4
g5
sg6
F0.0
sg7
F8466955.0
sg8
I53947
sg9
I01
sg10
g5
sg11
S'scott.yeager@enron.com'
p368
sg13
g5
sg14
g5
sg15
g5
sg16
g5
sg17
g5
sg18
I147950
sg19
g5
sg20
g5
sg21
I11884758
sg22
g5
sg23
g5
sg24
I3576206
sg25
I158403
sg26
I360300
sg27
I8308552
ssS'HIRKO JOSEPH'
p369
(dp370
g3
g5
sg4
I10259
sg6
F0.0
sg7
F30766064.0
sg8
I77978
sg9
I01
sg10
g5
sg11
S'joe.hirko@enron.com'
p371
sg13
g5
sg14
g5
sg15
g5
sg16
g5
sg17
g5
sg18
I2856
sg19
g5
sg20
g5
sg21
I30766064
sg22
g5
sg23
g5
sg24
g5
sg25
g5
sg26
I91093
sg27
I30766064
ssS'DIETRICH JANET R'
p372
(dp373
g3
I2572
sg4
g5
sg6
F0.012106261859582544
sg7
F2400119.0
sg8
I3475
sg9
I00
sg10
g5
sg11
S'janet.dietrich@enron.com'
p374
sg13
I556416
sg14
g5
sg15
I1902
sg16
g5
sg17
I63
sg18
I473
sg19
g5
sg20
I600000
sg21
I1865087
sg22
I305
sg23
I14
sg24
I315068
sg25
I250100
sg26
I1410464
sg27
I1550019
ssS'DERRICK JR. JAMES V'
p375
(dp376
g3
I2181
sg4
g5
sg6
F0.0027184466019417475
sg7
F10124288.0
sg8
I51124
sg9
I00
sg10
I-1284000
sg11
S'james.derrick@enron.com'
p377
sg13
I484000
sg14
I-1787380
sg15
I1401
sg16
g5
sg17
I909
sg18
I7482
sg19
g5
sg20
I800000
sg21
I8831913
sg22
I64
sg23
I20
sg24
I1787380
sg25
I492375
sg26
I550981
sg27
I8831913
ssS'FREVERT MARK A'
p378
(dp379
g3
I3275
sg4
I6426990
sg6
F0.007524271844660194
sg7
F13494450.0
sg8
I86987
sg9
I00
sg10
I-3367011
sg11
S'mark.frevert@enron.com'
p380
sg13
I1617011
sg14
g5
sg15
I2979
sg16
I2000000
sg17
I21
sg18
I7427621
sg19
g5
sg20
I2000000
sg21
I14622185
sg22
I242
sg23
I6
sg24
I4188667
sg25
I1060932
sg26
I17252530
sg27
I10433518
ssS'PAI LOU L'
p381
(dp382
g3
g5
sg4
g5
sg6
F0.0
sg7
F16626046.0
sg8
I32047
sg9
I00
sg10
g5
sg11
S'lou.pai@enron.com'
p383
sg13
g5
sg14
g5
sg15
g5
sg16
g5
sg17
g5
sg18
I1829457
sg19
g5
sg20
I1000000
sg21
I23817930
sg22
g5
sg23
g5
sg24
I8453763
sg25
I261879
sg26
I3123383
sg27
I15364167
ssS'BAY FRANKLIN R'
p384
(dp385
g3
g5
sg4
I260455
sg6
F0.0
sg7
F639671.0
sg8
I129142
sg9
I00
sg10
I-201641
sg11
S'frank.bay@enron.com'
p386
sg13
g5
sg14
I-82782
sg15
g5
sg16
g5
sg17
g5
sg18
I69
sg19
g5
sg20
I400000
sg21
I63014
sg22
g5
sg23
g5
sg24
I145796
sg25
I239671
sg26
I827696
sg27
g5
ssS'HAYSLETT RODERICK J'
p387
(dp388
g3
I2649
sg4
g5
sg6
F0.001967654986522911
sg7
F0.0
sg8
g5
sg9
I00
sg10
g5
sg11
S'rod.hayslett@enron.com'
p389
sg13
g5
sg14
g5
sg15
I571
sg16
g5
sg17
I1061
sg18
g5
sg19
g5
sg20
g5
sg21
I346663
sg22
I35
sg23
I38
sg24
I346663
sg25
g5
sg26
g5
sg27
g5
ssS'FUGH JOHN L'
p390
(dp391
g3
g5
sg4
I50591
sg6
F0.0
sg7
F176378.0
sg8
g5
sg9
I00
sg10
g5
sg11
g5
sg13
g5
sg14
g5
sg15
g5
sg16
g5
sg17
g5
sg18
g5
sg19
g5
sg20
g5
sg21
I176378
sg22
g5
sg23
g5
sg24
g5
sg25
g5
sg26
I50591
sg27
I176378
ssS'FALLON JAMES B'
p392
(dp393
g3
I1755
sg4
g5
sg6
F0.004316939890710383
sg7
F3744845.0
sg8
I95924
sg9
I00
sg10
g5
sg11
S'jim.fallon@enron.com'
p394
sg13
I374347
sg14
g5
sg15
I1604
sg16
g5
sg17
I75
sg18
I401481
sg19
g5
sg20
I2500000
sg21
I2332399
sg22
I42
sg23
I37
sg24
I1392142
sg25
I304588
sg26
I3676340
sg27
I940257
ssS'KOENIG MARK E'
p395
(dp396
g3
I2374
sg4
g5
sg6
F0.0027926078028747436
sg7
F1681683.0
sg8
I127017
sg9
I01
sg10
g5
sg11
S'mark.koenig@enron.com'
p397
sg13
I300000
sg14
g5
sg15
I2271
sg16
g5
sg17
I61
sg18
I150458
sg19
g5
sg20
I700000
sg21
I1920055
sg22
I53
sg23
I15
sg24
I1248318
sg25
I309946
sg26
I1587421
sg27
I671737
ssS'SAVAGE FRANK'
p398
(dp399
g3
g5
sg4
g5
sg6
F0.0
sg7
F0.0
sg8
g5
sg9
I00
sg10
I-121284
sg11
g5
sg13
g5
sg14
g5
sg15
g5
sg16
g5
sg17
g5
sg18
g5
sg19
I125034
sg20
g5
sg21
g5
sg22
g5
sg23
g5
sg24
g5
sg25
g5
sg26
I3750
sg27
g5
ssS'IZZO LAWRENCE L'
p400
(dp401
g3
I496
sg4
g5
sg6
F0.006407766990291263
sg7
F2250446.0
sg8
I28093
sg9
I00
sg10
g5
sg11
S'larry.izzo@enron.com'
p402
sg13
I312500
sg14
g5
sg15
I437
sg16
g5
sg17
I19
sg18
I1553729
sg19
g5
sg20
g5
sg21
I5819980
sg22
I28
sg23
I5
sg24
I3654808
sg25
I85274
sg26
I1979596
sg27
I2165172
ssS'TILNEY ELIZABETH A'
p403
(dp404
g3
I460
sg4
g5
sg6
F0.0043841336116910235
sg7
F1138588.0
sg8
g5
sg9
I00
sg10
I-575000
sg11
S'elizabeth.tilney@enron.com'
p405
sg13
I275000
sg14
g5
sg15
I379
sg16
g5
sg17
I19
sg18
I152055
sg19
g5
sg20
I300000
sg21
I1168042
sg22
I10
sg23
I11
sg24
I576792
sg25
I247338
sg26
I399393
sg27
I591250
ssS'MARTIN AMANDA K'
p406
(dp407
g3
I1522
sg4
I85430
sg6
F0.0004566210045662101
sg7
F2419793.0
sg8
I8211
sg9
I00
sg10
g5
sg11
S'a..martin@enron.com'
p408
sg13
I5145434
sg14
g5
sg15
I477
sg16
g5
sg17
I230
sg18
I2818454
sg19
g5
sg20
g5
sg21
I2070306
sg22
I8
sg23
I0
sg24
g5
sg25
I349487
sg26
I8407016
sg27
I2070306
ssS'BUY RICHARD B'
p409
(dp410
g3
I3523
sg4
I649584
sg6
F0.004960664335664337
sg7
F3773359.0
sg8
g5
sg9
I00
sg10
I-694862
sg11
S'rick.buy@enron.com'
p411
sg13
I769862
sg14
g5
sg15
I2333
sg16
g5
sg17
I1053
sg18
I400572
sg19
g5
sg20
I900000
sg21
I3444470
sg22
I156
sg23
I71
sg24
I901657
sg25
I330546
sg26
I2355702
sg27
I2542813
ssS'GRAMM WENDY L'
p412
(dp413
g3
g5
sg4
g5
sg6
F0.0
sg7
F0.0
sg8
g5
sg9
I00
sg10
g5
sg11
g5
sg13
g5
sg14
g5
sg15
g5
sg16
g5
sg17
g5
sg18
g5
sg19
I119292
sg20
g5
sg21
g5
sg22
g5
sg23
g5
sg24
g5
sg25
g5
sg26
I119292
sg27
g5
ssS'CAUSEY RICHARD A'
p414
(dp415
g3
I1892
sg4
g5
sg6
F0.0036063884595569293
sg7
F1415189.0
sg8
I30674
sg9
I01
sg10
I-235000
sg11
S'richard.causey@enron.com'
p416
sg13
I350000
sg14
g5
sg15
I1585
sg16
g5
sg17
I49
sg18
I307895
sg19
g5
sg20
I1000000
sg21
I2502063
sg22
I58
sg23
I12
sg24
I2502063
sg25
I415189
sg26
I1868758
sg27
g5
ssS'TAYLOR MITCHELL S'
p417
(dp418
g3
I533
sg4
I227449
sg6
F0.0
sg7
F4046464.0
sg8
g5
sg9
I00
sg10
g5
sg11
S'mitchell.taylor@enron.com'
p419
sg13
g5
sg14
g5
sg15
I300
sg16
g5
sg17
I29
sg18
g5
sg19
g5
sg20
I600000
sg21
I3745048
sg22
I0
sg23
I0
sg24
I563798
sg25
I265214
sg26
I1092663
sg27
I3181250
ssS'DONAHUE JR JEFFREY M'
p420
(dp421
g3
I865
sg4
g5
sg6
F0.022435174746335967
sg7
F1844521.0
sg8
I96268
sg9
I00
sg10
I-300000
sg11
S'jeff.donahue@enron.com'
p422
sg13
g5
sg14
g5
sg15
I772
sg16
g5
sg17
I22
sg18
I891
sg19
g5
sg20
I800000
sg21
I1080988
sg22
I188
sg23
I11
sg24
I315068
sg25
I278601
sg26
I875760
sg27
I765920
ssS'GLISAN JR BEN F'
p423
(dp424
g3
I873
sg4
g5
sg6
F0.006524184476940384
sg7
F1259703.0
sg8
I125978
sg9
I01
sg10
g5
sg11
S'ben.glisan@enron.com'
p425
sg13
I71023
sg14
g5
sg15
I874
sg16
g5
sg17
I16
sg18
I200308
sg19
g5
sg20
I600000
sg21
I778546
sg22
I52
sg23
I6
sg24
I393818
sg25
I274975
sg26
I1272284
sg27
I384728
ss.